(dp1
Vekstrabladet
p2
(dp3
S'timezone'
p4
S'Europe/Copenhagen'
p5
sS'fan_count'
p6
I277048
ssVdailymirror
p7
(dp8
g4
S'Europe/London'
p9
sg6
I2328034
ssVNBCNews
p10
(dp11
g4
VAmerica/New_York
p12
sg6
I8310769
ssVbbcnews
p13
(dp14
g4
S'Europe/London'
p15
sg6
I34890412
ssVTheIndependentOnline
p16
(dp17
g4
S'Europe/London'
p18
sg6
I5181405
ssVHuffingtonPost
p19
(dp20
g4
S'America/New_York'
p21
sg6
I8473460
ssVmashable
p22
(dp23
g4
S'America/New_York'
p24
sg6
I3909752
ssVberlingskebusiness
p25
(dp26
g4
S'Europe/Copenhagen'
p27
sg6
I66529
ssVlokalavisen.dk
p28
(dp29
g4
VEurope/Copenhagen
p30
sg6
I32523
ssVDailyMail
p31
(dp32
g4
S'Europe/London'
p33
sg6
I6530348
ssVcnn
p34
(dp35
g4
S'America/New_York'
p36
sg6
I24401355
ssVaftonbladet
p37
(dp38
g4
VEurope/Stockholm
p39
sg6
I319112
ssVjyllandsposten
p40
(dp41
g4
S'Europe/Copenhagen'
p42
sg6
I183841
ssVstiftstidende
p43
(dp44
g4
S'Europe/Copenhagen'
p45
sg6
I12880
ssVwashingtonpost
p46
(dp47
g4
S'America/New_York'
p48
sg6
I4830128
ssVnytimes
p49
(dp50
g4
g12
sg6
I12307336
ssVditbt
p51
(dp52
g4
VEurope/Copenhagen
p53
sg6
I325919
ssVNYDailyNews
p54
(dp55
g4
S'America/New_York'
p56
sg6
I2409377
ssVfinans.dk
p57
(dp58
g4
S'Europe/Copenhagen'
p59
sg6
I40443
ssVtheguardian
p60
(dp61
g4
VEurope/London
p62
sg6
I6566032
ssVmetroxpress
p63
(dp64
g4
g30
sg6
I179135
ssVMetroUK
p65
(dp66
g4
S'Europe/London'
p67
sg6
I1442132
ssVexpressen
p68
(dp69
g4
g39
sg6
I339131
ssVNRK
p70
(dp71
g4
VEurope/Oslo
p72
sg6
I139691
ssVtv2nyhederne
p73
(dp74
g4
S'Europe/Copenhagen'
p75
sg6
I431416
ssVnordjyskemedier
p76
(dp77
g4
g30
sg6
I37355
ssVvgnett
p78
(dp79
g4
S'Europe/Oslo'
p80
sg6
I398827
ssVDRNyheder
p81
(dp82
g4
g30
sg6
I284069
ssVABCNews
p83
(dp84
g4
g12
sg6
I9448949
ssVfyensdk
p85
(dp86
g4
g30
sg6
I30027
ss.