(dp1
S'ekstrabladet'
p2
(dp3
S'timestamp'
p4
I1482666838
sS'success'
p5
I1
ssS'vgnett'
p6
(dp7
g4
I1482666838
sg5
I1
ssS'dailymirror'
p8
(dp9
g4
I1482666838
sg5
I1
ssS'NBCNews'
p10
(dp11
g4
I1482666838
sg5
I1
ssS'bbcnews'
p12
(dp13
g4
I1482666838
sg5
I1
ssS'TheIndependentOnline'
p14
(dp15
g4
I1482666838
sg5
I1
ssS'HuffingtonPost'
p16
(dp17
g4
I1482666838
sg5
I1
ssS'mashable'
p18
(dp19
g4
I1482666838
sg5
I1
ssS'berlingskebusiness'
p20
(dp21
g4
I1482666838
sg5
I1
ssS'expressen'
p22
(dp23
g4
I1482666838
sg5
I1
ssS'DailyMail'
p24
(dp25
g4
I1482666838
sg5
I1
ssS'cnn'
p26
(dp27
g4
I1482666838
sg5
I1
ssS'aftonbladet'
p28
(dp29
g4
I1482666838
sg5
I1
ssS'jyllandsposten'
p30
(dp31
g4
I1482666838
sg5
I1
ssS'stiftstidende'
p32
(dp33
g4
I1482666838
sg5
I1
ssS'washingtonpost'
p34
(dp35
g4
I1482666838
sg5
I1
ssS'nytimes'
p36
(dp37
g4
I1482666838
sg5
I1
ssS'ditbt'
p38
(dp39
g4
I1482666838
sg5
I1
ssS'NYDailyNews'
p40
(dp41
g4
I1482666838
sg5
I1
ssS'finans.dk'
p42
(dp43
g4
I1482666838
sg5
I1
ssS'theguardian'
p44
(dp45
g4
I1482666838
sg5
I1
ssS'metroxpress'
p46
(dp47
g4
I1482666838
sg5
I1
ssS'MetroUK'
p48
(dp49
g4
I1482666838
sg5
I1
ssS'lokalavisen.dk'
p50
(dp51
g4
I1482666838
sg5
I1
ssS'NRK'
p52
(dp53
g4
I1482666838
sg5
I1
ssS'tv2nyhederne'
p54
(dp55
g4
I1482666838
sg5
I1
ssS'nordjyskemedier'
p56
(dp57
g4
I1482666838
sg5
I1
ssS'DRNyheder'
p58
(dp59
g4
I1482666838
sg5
I1
ssS'ABCNews'
p60
(dp61
g4
I1482666838
sg5
I1
ssS'fyensdk'
p62
(dp63
g4
I1482666838
sg5
I1
ss.