(dp0
S'ekstrabladet'
p1
(dp2
S'timestamp'
p3
I1488808669
sS'success'
p4
I1
ssS'vgnett'
p5
(dp6
g3
I1488808669
sg4
I1
ssS'dailymirror'
p7
(dp8
g3
I1488808669
sg4
I1
ssS'NBCNews'
p9
(dp10
g3
I1488808669
sg4
I1
ssS'bbcnews'
p11
(dp12
g3
I1488808669
sg4
I1
ssS'TheIndependentOnline'
p13
(dp14
g3
I1488808669
sg4
I1
ssS'HuffingtonPost'
p15
(dp16
g3
I1488808669
sg4
I1
ssS'mashable'
p17
(dp18
g3
I1488808669
sg4
I1
ssS'berlingskebusiness'
p19
(dp20
g3
I1488808669
sg4
I1
ssS'expressen'
p21
(dp22
g3
I1488808669
sg4
I1
ssS'DailyMail'
p23
(dp24
g3
I1488808669
sg4
I1
ssS'cnn'
p25
(dp26
g3
I1488808669
sg4
I1
ssS'aftonbladet'
p27
(dp28
g3
I1488808669
sg4
I1
ssS'jyllandsposten'
p29
(dp30
g3
I1488808669
sg4
I1
ssS'stiftstidende'
p31
(dp32
g3
I1488808669
sg4
I1
ssS'washingtonpost'
p33
(dp34
g3
I1488808669
sg4
I1
ssS'nytimes'
p35
(dp36
g3
I1488808669
sg4
I1
ssS'ditbt'
p37
(dp38
g3
I1488808669
sg4
I1
ssS'NYDailyNews'
p39
(dp40
g3
I1488808669
sg4
I1
ssS'finans.dk'
p41
(dp42
g3
I1488808669
sg4
I1
ssS'theguardian'
p43
(dp44
g3
I1488808669
sg4
I1
ssS'metroxpress'
p45
(dp46
g3
I1488808669
sg4
I1
ssS'MetroUK'
p47
(dp48
g3
I1488808669
sg4
I1
ssS'lokalavisen.dk'
p49
(dp50
g3
I1488808669
sg4
I1
ssS'NRK'
p51
(dp52
g3
I1488808669
sg4
I1
ssS'tv2nyhederne'
p53
(dp54
g3
I1488808669
sg4
I1
ssS'nordjyskemedier'
p55
(dp56
g3
I1488808669
sg4
I1
ssS'DRNyheder'
p57
(dp58
g3
I1488808669
sg4
I1
ssS'ABCNews'
p59
(dp60
g3
I1488808669
sg4
I1
ssS'fyensdk'
p61
(dp62
g3
I1488808669
sg4
I1
ss.